target datalayout = "e-m:e-p270:32:32-p271:32:32-p272:64:64-i64:64-i128:128-f80:128-n8:16:32:64-S128"
target triple = "x86_64-pc-linux-gnu"

%"class.metaspace::VirtualSpaceList" = type { ptr, ptr, ptr, %"class.metaspace::AbstractCounter", i8, ptr, %"class.metaspace::AbstractCounter.0", %"class.metaspace::AbstractCounter.0" }
%"class.metaspace::AbstractCounter" = type { i32 }
%"class.metaspace::AbstractCounter.0" = type { i64 }
%class.ReservedSpace = type <{ ptr, i64, i64, i64, i64, i8, [3 x i8], i32, i8, [7 x i8] }>
%"class.metaspace::VirtualSpaceNode" = type { ptr, %class.ReservedSpace, i8, ptr, i64, i64, %"class.metaspace::CommitMask", %"class.metaspace::RootChunkAreaLUT", ptr, ptr, ptr }
%"class.metaspace::CommitMask" = type { %class.CHeapBitMap.base, ptr, i64, i64 }
%class.CHeapBitMap.base = type <{ %class.GrowableBitMap, i8 }>
%class.GrowableBitMap = type { %class.BitMap }
%class.BitMap = type { ptr, i64 }
%"class.metaspace::RootChunkAreaLUT" = type { ptr, i32, ptr }

@_ZTVN9metaspace16VirtualSpaceListE = hidden unnamed_addr constant { [4 x ptr] } { [4 x ptr] [ptr null, ptr null, ptr @_ZN9metaspace16VirtualSpaceListD1Ev, ptr @_ZN9metaspace16VirtualSpaceListD0Ev] }, align 8

; Function Attrs: mustprogress nounwind uwtable
define linkonce_odr hidden void @_ZN9metaspace15AbstractCounterIjE12increment_byEj(ptr noundef nonnull align 4 dereferenceable(4) %0, i32 noundef %1) #1 comdat align 2 {
  %3 = alloca ptr, align 8
  %4 = alloca i32, align 4
  store ptr %0, ptr %3, align 8
  store i32 %1, ptr %4, align 4
  %5 = load ptr, ptr %3, align 8
  %6 = load i32, ptr %4, align 4
  %7 = getelementptr inbounds %"class.metaspace::AbstractCounter", ptr %5, i32 0, i32 0
  %8 = load i32, ptr %7, align 4
  %9 = add i32 %8, %6
  store i32 %9, ptr %7, align 4
  ret void
}

; Function Attrs: mustprogress nounwind uwtable
define linkonce_odr hidden void @_ZN9metaspace15AbstractCounterIjE9incrementEv(ptr noundef nonnull align 4 dereferenceable(4) %0) #1 comdat align 2 {
  %2 = alloca ptr, align 8
  store ptr %0, ptr %2, align 8
  %3 = load ptr, ptr %2, align 8
  call void @_ZN9metaspace15AbstractCounterIjE12increment_byEj(ptr noundef nonnull align 4 dereferenceable(4) %3, i32 noundef 1)
  ret void
}

; Function Attrs: mustprogress nounwind uwtable
define linkonce_odr hidden void @_ZN9metaspace16VirtualSpaceNode8set_nextEPS0_(ptr noundef nonnull align 8 dereferenceable(192) %0, ptr noundef %1) #1 comdat align 2 {
  %3 = alloca ptr, align 8
  %4 = alloca ptr, align 8
  store ptr %0, ptr %3, align 8
  store ptr %1, ptr %4, align 8
  %5 = load ptr, ptr %3, align 8
  %6 = load ptr, ptr %4, align 8
  %7 = getelementptr inbounds %"class.metaspace::VirtualSpaceNode", ptr %5, i32 0, i32 0
  store ptr %6, ptr %7, align 8
  ret void
}

; Function Attrs: mustprogress nounwind uwtable
define linkonce_odr hidden void @_ZN9metaspace15AbstractCounterImEC2Ev(ptr noundef nonnull align 8 dereferenceable(8) %0) unnamed_addr #1 comdat align 2 {
  %2 = alloca ptr, align 8
  store ptr %0, ptr %2, align 8
  %3 = load ptr, ptr %2, align 8
  %4 = getelementptr inbounds %"class.metaspace::AbstractCounter.0", ptr %3, i32 0, i32 0
  store i64 0, ptr %4, align 8
  ret void
}

; Function Attrs: mustprogress nounwind uwtable
define linkonce_odr hidden void @_ZN9metaspace15AbstractCounterIjEC2Ev(ptr noundef nonnull align 4 dereferenceable(4) %0) unnamed_addr #1 comdat align 2 {
  %2 = alloca ptr, align 8
  store ptr %0, ptr %2, align 8
  %3 = load ptr, ptr %2, align 8
  %4 = getelementptr inbounds %"class.metaspace::AbstractCounter", ptr %3, i32 0, i32 0
  store i32 0, ptr %4, align 4
  ret void
}

; Function Attrs: mustprogress nounwind uwtable
define hidden void @_ZN9metaspace16VirtualSpaceListC2EPKc13ReservedSpacePNS_13CommitLimiterE(ptr noundef nonnull align 8 dereferenceable(56) %0, ptr noundef %1, ptr noundef byval(%class.ReservedSpace) align 8 %2, ptr noundef %3) unnamed_addr #1 align 2 {
  %5 = alloca ptr, align 8
  %6 = alloca ptr, align 8
  %7 = alloca ptr, align 8
  %8 = alloca ptr, align 8
  %9 = alloca %class.ReservedSpace, align 8
  store ptr %0, ptr %5, align 8
  store ptr %1, ptr %6, align 8
  store ptr %3, ptr %7, align 8
  %10 = load ptr, ptr %5, align 8
  store ptr getelementptr inbounds inrange(-16, 16) ({ [4 x ptr] }, ptr @_ZTVN9metaspace16VirtualSpaceListE, i32 0, i32 0, i32 2), ptr %10, align 8
  %11 = getelementptr inbounds %"class.metaspace::VirtualSpaceList", ptr %10, i32 0, i32 1
  %12 = load ptr, ptr %6, align 8
  store ptr %12, ptr %11, align 8
  %13 = getelementptr inbounds %"class.metaspace::VirtualSpaceList", ptr %10, i32 0, i32 2
  store volatile ptr null, ptr %13, align 8
  %14 = getelementptr inbounds %"class.metaspace::VirtualSpaceList", ptr %10, i32 0, i32 3
  call void @_ZN9metaspace15AbstractCounterIjEC2Ev(ptr noundef nonnull align 4 dereferenceable(4) %14)
  %15 = getelementptr inbounds %"class.metaspace::VirtualSpaceList", ptr %10, i32 0, i32 4
  store i8 0, ptr %15, align 4
  %16 = getelementptr inbounds %"class.metaspace::VirtualSpaceList", ptr %10, i32 0, i32 5
  %17 = load ptr, ptr %7, align 8
  store ptr %17, ptr %16, align 8
  %18 = getelementptr inbounds %"class.metaspace::VirtualSpaceList", ptr %10, i32 0, i32 6
  call void @_ZN9metaspace15AbstractCounterImEC2Ev(ptr noundef nonnull align 8 dereferenceable(8) %18)
  %19 = getelementptr inbounds %"class.metaspace::VirtualSpaceList", ptr %10, i32 0, i32 7
  call void @_ZN9metaspace15AbstractCounterImEC2Ev(ptr noundef nonnull align 8 dereferenceable(8) %19)
  call void @llvm.memcpy.p0.p0.i64(ptr align 8 %9, ptr align 8 %2, i64 56, i1 false)
  %20 = getelementptr inbounds %"class.metaspace::VirtualSpaceList", ptr %10, i32 0, i32 5
  %21 = load ptr, ptr %20, align 8
  %22 = getelementptr inbounds %"class.metaspace::VirtualSpaceList", ptr %10, i32 0, i32 6
  %23 = getelementptr inbounds %"class.metaspace::VirtualSpaceList", ptr %10, i32 0, i32 7
  %24 = call noundef ptr @_ZN9metaspace16VirtualSpaceNode11create_nodeE13ReservedSpacePNS_13CommitLimiterEPNS_15AbstractCounterImEES6_(ptr noundef byval(%class.ReservedSpace) align 8 %9, ptr noundef %21, ptr noundef %22, ptr noundef %23)
  store ptr %24, ptr %8, align 8
  %25 = load ptr, ptr %8, align 8
  %26 = getelementptr inbounds %"class.metaspace::VirtualSpaceList", ptr %10, i32 0, i32 2
  store volatile ptr %25, ptr %26, align 8
  %27 = getelementptr inbounds %"class.metaspace::VirtualSpaceList", ptr %10, i32 0, i32 2
  %28 = load volatile ptr, ptr %27, align 8
  call void @_ZN9metaspace16VirtualSpaceNode8set_nextEPS0_(ptr noundef nonnull align 8 dereferenceable(192) %28, ptr noundef null)
  %29 = getelementptr inbounds %"class.metaspace::VirtualSpaceList", ptr %10, i32 0, i32 3
  call void @_ZN9metaspace15AbstractCounterIjE9incrementEv(ptr noundef nonnull align 4 dereferenceable(4) %29)
  ret void
}