; Function Attrs: mustprogress nounwind uwtable
define hidden void @_ZN9metaspace16VirtualSpaceListC2EPKc13ReservedSpacePNS_13CommitLimiterE(ptr noundef nonnull align 8 dereferenceable(56) %0, ptr noundef %1, ptr nocapture noundef readonly byval(%class.ReservedSpace) align 8 %2, ptr noundef %3) unnamed_addr #1 align 2 {
  store ptr getelementptr inbounds inrange(-16, 16) (i8, ptr @_ZTVN9metaspace16VirtualSpaceListE, i64 16), ptr %0, align 8
  %5 = getelementptr inbounds i8, ptr %0, i64 8
  store ptr %1, ptr %5, align 8
  %6 = getelementptr inbounds i8, ptr %0, i64 16
  store volatile ptr null, ptr %6, align 8
  %7 = getelementptr inbounds i8, ptr %0, i64 24
  store i32 0, ptr %7, align 8
  %8 = getelementptr inbounds i8, ptr %0, i64 28
  store i8 0, ptr %8, align 4
  %9 = getelementptr inbounds i8, ptr %0, i64 32
  store ptr %3, ptr %9, align 8
  %10 = getelementptr inbounds i8, ptr %0, i64 40
  %11 = getelementptr inbounds i8, ptr %0, i64 48
  tail call void @llvm.memset.p0.i64(ptr noundef nonnull align 8 dereferenceable(16) %10, i8 0, i64 16, i1 false)
  %12 = tail call noundef ptr @_ZN9metaspace16VirtualSpaceNode11create_nodeE13ReservedSpacePNS_13CommitLimiterEPNS_15AbstractCounterImEES6_(ptr noundef nonnull byval(%class.ReservedSpace) align 8 %2, ptr noundef %3, ptr noundef nonnull %10, ptr noundef nonnull %11) #8
  store volatile ptr %12, ptr %6, align 8
  %13 = load volatile ptr, ptr %6, align 8
  store ptr null, ptr %13, align 8
  %14 = load i32, ptr %7, align 8
  %15 = add i32 %14, 1
  store i32 %15, ptr %7, align 8
  ret void
}